target datalayout = "e-m:e-p270:32:32-p271:32:32-p272:64:64-i64:64-i128:128-f80:128-n8:16:32:64-S128"
target triple = "x86_64-pc-linux-gnu"

%struct.__ncnn_datareader_t = type { ptr, ptr, ptr }
%"class.ncnn::DataReader" = type { ptr }
%class.DataReaderFromStdio_c_api = type { %"class.ncnn::DataReaderFromStdio", ptr }
%"class.ncnn::DataReaderFromStdio" = type { %"class.ncnn::DataReader", ptr }

; Function Attrs: mustprogress uwtable
define linkonce_odr hidden void @_ZN25DataReaderFromStdio_c_apiC2EP8_IO_FILEP19__ncnn_datareader_t(ptr noundef nonnull align 8 dereferenceable(24) %0, ptr noundef %1, ptr noundef %2) unnamed_addr #1 comdat align 2 {
  %4 = alloca ptr, align 8
  %5 = alloca ptr, align 8
  %6 = alloca ptr, align 8
  store ptr %0, ptr %4, align 8
  store ptr %1, ptr %5, align 8
  store ptr %2, ptr %6, align 8
  %7 = load ptr, ptr %4, align 8
  %8 = load ptr, ptr %5, align 8
  call void @_ZN4ncnn19DataReaderFromStdioC2EP8_IO_FILE(ptr noundef nonnull align 8 dereferenceable(16) %7, ptr noundef %8)
  store ptr getelementptr inbounds inrange(-16, 40) ({ [7 x ptr] }, ptr @_ZTV25DataReaderFromStdio_c_api, i32 0, i32 0, i32 2), ptr %7, align 8
  %9 = load ptr, ptr %6, align 8
  %10 = getelementptr inbounds nuw %class.DataReaderFromStdio_c_api, ptr %7, i32 0, i32 1
  store ptr %9, ptr %10, align 8
  ret void
}

; Function Attrs: mustprogress uwtable
define hidden ptr @ncnn_datareader_create_from_stdio(ptr noundef %0) #1 personality ptr @__gxx_personality_v0 {
  %2 = alloca ptr, align 8
  %3 = alloca ptr, align 8
  %4 = alloca ptr, align 8
  %5 = alloca i32, align 4
  store ptr %0, ptr %2, align 8
  %6 = call noalias ptr @malloc(i64 noundef 24) #12
  store ptr %6, ptr %3, align 8
  %7 = call noalias noundef nonnull ptr @_Znwm(i64 noundef 24) #13
  %8 = load ptr, ptr %2, align 8
  %9 = load ptr, ptr %3, align 8
  invoke void @_ZN25DataReaderFromStdio_c_apiC2EP8_IO_FILEP19__ncnn_datareader_t(ptr noundef nonnull align 8 dereferenceable(24) %7, ptr noundef %8, ptr noundef %9)
          to label %10 unwind label %18

10:                                               ; preds = %1
  %11 = load ptr, ptr %3, align 8
  %12 = getelementptr inbounds nuw %struct.__ncnn_datareader_t, ptr %11, i32 0, i32 0
  store ptr %7, ptr %12, align 8
  %13 = load ptr, ptr %3, align 8
  %14 = getelementptr inbounds nuw %struct.__ncnn_datareader_t, ptr %13, i32 0, i32 1
  store ptr @_ZL31__ncnn_DataReaderFromStdio_scanP19__ncnn_datareader_tPKcPv, ptr %14, align 8
  %15 = load ptr, ptr %3, align 8
  %16 = getelementptr inbounds nuw %struct.__ncnn_datareader_t, ptr %15, i32 0, i32 2
  store ptr @_ZL31__ncnn_DataReaderFromStdio_readP19__ncnn_datareader_tPvm, ptr %16, align 8
  %17 = load ptr, ptr %3, align 8
  ret ptr %17

18:                                               ; preds = %1
  %19 = landingpad { ptr, i32 }
          cleanup
  %20 = extractvalue { ptr, i32 } %19, 0
  store ptr %20, ptr %4, align 8
  %21 = extractvalue { ptr, i32 } %19, 1
  store i32 %21, ptr %5, align 4
  call void @_ZdlPvm(ptr noundef %7, i64 noundef 24) #14
  br label %22

22:                                               ; preds = %18
  %23 = load ptr, ptr %4, align 8
  %24 = load i32, ptr %5, align 4
  %25 = insertvalue { ptr, i32 } poison, ptr %23, 0
  %26 = insertvalue { ptr, i32 } %25, i32 %24, 1
  resume { ptr, i32 } %26
}