; Function Attrs: mustprogress uwtable
define hidden noundef ptr @ncnn_datareader_create_from_stdio(ptr noundef %0) local_unnamed_addr #1 personality ptr @__gxx_personality_v0 {
  %2 = tail call noalias dereferenceable_or_null(24) ptr @malloc(i64 noundef 24) #23
  %3 = tail call noalias noundef nonnull dereferenceable(24) ptr @_Znwm(i64 noundef 24) #24
  invoke void @_ZN4ncnn19DataReaderFromStdioC2EP8_IO_FILE(ptr noundef nonnull align 8 dereferenceable(16) %3, ptr noundef %0)
          to label %4 unwind label %8

4:                                                ; preds = %1
  store ptr getelementptr inbounds inrange(-16, 40) (i8, ptr @_ZTV25DataReaderFromStdio_c_api, i64 16), ptr %3, align 8
  %5 = getelementptr inbounds nuw i8, ptr %3, i64 16
  store ptr %2, ptr %5, align 8
  store ptr %3, ptr %2, align 8
  %6 = getelementptr inbounds nuw i8, ptr %2, i64 8
  store ptr @_ZL31__ncnn_DataReaderFromStdio_scanP19__ncnn_datareader_tPKcPv, ptr %6, align 8
  %7 = getelementptr inbounds nuw i8, ptr %2, i64 16
  store ptr @_ZL31__ncnn_DataReaderFromStdio_readP19__ncnn_datareader_tPvm, ptr %7, align 8
  ret ptr %2

8:                                                ; preds = %1
  %9 = landingpad { ptr, i32 }
          cleanup
  tail call void @_ZdlPvm(ptr noundef nonnull %3, i64 noundef 24) #25
  resume { ptr, i32 } %9
}